Certificate:
    Data:
        Version: 1 (0x0)
        Serial Number: 1 (0x1)
        Signature Algorithm: sha256WithRSAEncryption
        Issuer: CN=build.break.learn
        Validity
            Not Before: Aug 25 15:42:06 2023 GMT
            Not After : Aug 24 15:42:06 2024 GMT
        Subject: CN=build.break.learn
        Subject Public Key Info:
            Public Key Algorithm: rsaEncryption
                Public-Key: (2048 bit)
                Modulus:
                    00:de:71:53:c9:d8:e4:4f:29:ca:81:75:19:ee:f2:
                    d7:dd:c1:60:51:10:33:b7:0c:3c:b0:d7:35:24:a2:
                    94:10:c1:f8:be:a3:d0:20:2a:ab:16:c1:03:99:ac:
                    9a:86:1b:b9:fb:cc:a8:c4:3b:ed:57:6d:43:97:36:
                    77:25:8d:5c:30:54:16:ba:19:dc:23:fc:7c:13:37:
                    0c:9c:2e:19:f4:00:f1:47:b4:33:1d:59:7f:cc:99:
                    d6:bb:03:b6:01:e8:d9:b0:97:07:5c:e9:2d:3d:b7:
                    83:52:d9:64:1f:74:4f:c9:e5:71:a4:76:70:ff:16:
                    01:32:15:6c:a5:46:8c:d3:4f:75:15:fe:b2:c0:7e:
                    5a:d3:37:e3:7c:eb:3e:0e:c6:57:4e:e2:56:72:d3:
                    d3:3b:ae:15:70:02:c2:63:b5:d3:f2:a3:d1:71:8c:
                    3b:e6:45:ee:58:b0:47:ac:0e:1c:6e:5d:c3:a3:28:
                    ee:53:6b:e3:3c:61:c0:29:38:88:ca:80:08:e7:d6:
                    65:69:55:69:b7:17:ae:0c:9c:9f:c4:fc:9c:12:68:
                    4f:46:08:5e:ab:72:9d:95:a1:74:9c:19:c4:c5:c1:
                    f3:66:9c:3e:92:87:6a:72:0f:12:37:ae:c8:9e:92:
                    03:43:43:e3:b6:20:be:9c:86:66:06:50:d7:eb:61:
                    5d:95
                Exponent: 65537 (0x10001)
    Signature Algorithm: sha256WithRSAEncryption
    Signature Value:
        9a:ed:3d:80:ae:4e:4f:fe:9f:f9:90:cd:ea:f9:aa:22:87:f8:
        07:cc:68:e7:a7:8b:ef:7c:35:53:86:d1:ec:9d:13:08:92:61:
        e7:3f:df:17:e0:c8:53:0c:fa:76:84:78:4d:e5:ee:39:67:0c:
        a0:e2:30:4b:0d:08:53:58:b7:5c:b1:5a:93:19:45:b3:1d:1f:
        6b:0b:e2:9a:ff:59:32:82:42:26:86:28:3f:b8:8a:95:57:51:
        35:ec:38:46:e6:da:0a:e4:69:4a:90:af:c4:4e:1d:45:77:8e:
        38:8b:d7:83:7d:c7:e4:7d:fc:1e:83:ff:eb:0c:8f:70:4c:0f:
        1a:8a:59:cb:80:a0:72:58:67:36:4b:00:41:58:cc:7b:c1:bb:
        53:64:f0:d2:a9:52:dd:35:44:c9:13:83:77:b2:4f:bc:4b:90:
        3d:c1:6b:b2:50:cc:d3:8c:25:ba:f7:34:c4:e4:29:c5:27:d8:
        b6:c7:46:58:37:98:a4:9f:11:a2:9b:33:22:e5:d8:00:47:d8:
        fd:70:95:51:26:7c:35:ee:44:ca:a9:2f:cb:60:d4:02:d0:da:
        9a:13:36:9e:77:71:eb:4d:68:22:77:61:6b:d0:ff:8b:c7:2c:
        e2:c4:1c:1c:4a:79:7c:5b:b2:28:45:c3:07:0b:e8:4e:b6:95:
        ae:ce:94:9e
-----BEGIN CERTIFICATE-----
MIICrDCCAZQCAQEwDQYJKoZIhvcNAQELBQAwHDEaMBgGA1UEAwwRYnVpbGQuYnJl
YWsubGVhcm4wHhcNMjMwODI1MTU0MjA2WhcNMjQwODI0MTU0MjA2WjAcMRowGAYD
VQQDDBFidWlsZC5icmVhay5sZWFybjCCASIwDQYJKoZIhvcNAQEBBQADggEPADCC
AQoCggEBAN5xU8nY5E8pyoF1Ge7y193BYFEQM7cMPLDXNSSilBDB+L6j0CAqqxbB
A5msmoYbufvMqMQ77VdtQ5c2dyWNXDBUFroZ3CP8fBM3DJwuGfQA8Ue0Mx1Zf8yZ
1rsDtgHo2bCXB1zpLT23g1LZZB90T8nlcaR2cP8WATIVbKVGjNNPdRX+ssB+WtM3
43zrPg7GV07iVnLT0zuuFXACwmO10/Kj0XGMO+ZF7liwR6wOHG5dw6Mo7lNr4zxh
wCk4iMqACOfWZWlVabcXrgycn8T8nBJoT0YIXqtynZWhdJwZxMXB82acPpKHanIP
EjeuyJ6SA0ND47YgvpyGZgZQ1+thXZUCAwEAATANBgkqhkiG9w0BAQsFAAOCAQEA
mu09gK5OT/6f+ZDN6vmqIof4B8xo56eL73w1U4bR7J0TCJJh5z/fF+DIUwz6doR4
TeXuOWcMoOIwSw0IU1i3XLFakxlFsx0fawvimv9ZMoJCJoYoP7iKlVdRNew4Ruba
CuRpSpCvxE4dRXeOOIvXg33H5H38HoP/6wyPcEwPGopZy4CgclhnNksAQVjMe8G7
U2Tw0qlS3TVEyRODd7JPvEuQPcFrslDM04wluvc0xOQpxSfYtsdGWDeYpJ8Ropsz
IuXYAEfY/XCVUSZ8Ne5Eyqkvy2DUAtDamhM2nndx601oIndha9D/i8cs4sQcHEp5
fFuyKEXDBwvoTraVrs6Ung==
-----END CERTIFICATE-----
